target datalayout = "e-m:e-p270:32:32-p271:32:32-p272:64:64-i64:64-i128:128-f80:128-n8:16:32:64-S128"
target triple = "x86_64-pc-linux-gnu"

%"class.google::protobuf::internal::InternalMetadata" = type { i64 }
%"class.google::protobuf::internal::HasBits" = type { [1 x i32] }
%"class.google::protobuf::Message" = type { %"class.google::protobuf::MessageLite" }
%"class.google::protobuf::MessageLite" = type { ptr, %"class.google::protobuf::internal::InternalMetadata" }
%"struct.std::atomic" = type { %"struct.std::__atomic_base" }
%"struct.std::__atomic_base" = type { i32 }
%"class.google::protobuf::internal::CachedSize" = type { %"struct.std::atomic" }
%"class.google::protobuf::internal::LogMessage" = type { i32, ptr, i32, %"class.std::__cxx11::basic_string" }
%"class.std::__cxx11::basic_string" = type { %"struct.std::__cxx11::basic_string<char>::_Alloc_hider", i64, %union.anon.88 }
%"struct.std::__cxx11::basic_string<char>::_Alloc_hider" = type { ptr }
%union.anon.88 = type { i64, [8 x i8] }
%"class.google::protobuf::internal::LogFinisher" = type { i8 }
%"class.opencv_caffe::DetectionOutputParameter" = type <{ %"class.google::protobuf::Message", %"class.google::protobuf::internal::HasBits", %"class.google::protobuf::internal::CachedSize", ptr, ptr, i32, i32, float, i8, i8, [2 x i8], i32, i32, i8, i8, [6 x i8] }>
%"class.opencv_caffe::NonMaximumSuppressionParameter" = type <{ %"class.google::protobuf::Message", %"class.google::protobuf::internal::HasBits", %"class.google::protobuf::internal::CachedSize", i32, float, float, [4 x i8] }>

@.str.2 = private unnamed_addr constant [133 x i8] c"generated/home/dtcxzyw/WorkSpace/Projects/compilers/llvm-opt-benchmark/bench/opencv/opencv/modules/dnn/misc/caffe/opencv-caffe.pb.cc\00", align 1
@.str.6 = private unnamed_addr constant [38 x i8] c"CHECK failed: nms_param_ != nullptr: \00", align 1
@.str.7 = private unnamed_addr constant [46 x i8] c"CHECK failed: save_output_param_ != nullptr: \00", align 1

; Function Attrs: alwaysinline mustprogress nounwind uwtable
define linkonce_odr hidden noundef zeroext i1 @_ZNK6google8protobuf8internal16InternalMetadata19HasUnknownFieldsTagEv(ptr noundef nonnull align 8 dereferenceable(8) %0) #13 comdat align 2 {
  %2 = alloca ptr, align 8
  store ptr %0, ptr %2, align 8, !tbaa !32
  %3 = load ptr, ptr %2, align 8
  %4 = getelementptr inbounds nuw %"class.google::protobuf::internal::InternalMetadata", ptr %3, i32 0, i32 0
  %5 = load i64, ptr %4, align 8, !tbaa !1438
  %6 = and i64 %5, 1
  %7 = icmp ne i64 %6, 0
  ret i1 %7
}

; Function Attrs: alwaysinline mustprogress uwtable
define linkonce_odr hidden noundef zeroext i1 @_ZNK6google8protobuf8internal16InternalMetadata19have_unknown_fieldsEv(ptr noundef nonnull align 8 dereferenceable(8) %0) #8 comdat align 2 {
  %2 = alloca ptr, align 8
  store ptr %0, ptr %2, align 8, !tbaa !32
  %3 = load ptr, ptr %2, align 8
  %4 = call noundef zeroext i1 @_ZNK6google8protobuf8internal16InternalMetadata19HasUnknownFieldsTagEv(ptr noundef nonnull align 8 dereferenceable(8) %3)
  ret i1 %4
}

; Function Attrs: alwaysinline mustprogress uwtable
define linkonce_odr hidden void @_ZN6google8protobuf8internal16InternalMetadata5ClearINS0_15UnknownFieldSetEEEvv(ptr noundef nonnull align 8 dereferenceable(8) %0) #8 comdat align 2 {
  %2 = alloca ptr, align 8
  store ptr %0, ptr %2, align 8, !tbaa !32
  %3 = load ptr, ptr %2, align 8
  %4 = call noundef zeroext i1 @_ZNK6google8protobuf8internal16InternalMetadata19have_unknown_fieldsEv(ptr noundef nonnull align 8 dereferenceable(8) %3)
  br i1 %4, label %5, label %6

5:                                                ; preds = %1
  call void @_ZN6google8protobuf8internal16InternalMetadata7DoClearINS0_15UnknownFieldSetEEEvv(ptr noundef nonnull align 8 dereferenceable(8) %3)
  br label %6

6:                                                ; preds = %5, %1
  ret void
}

; Function Attrs: alwaysinline mustprogress nounwind uwtable
define linkonce_odr hidden void @_ZN6google8protobuf8internal7HasBitsILm1EE5ClearEv(ptr noundef nonnull align 4 dereferenceable(4) %0) #13 comdat align 2 {
  %2 = alloca ptr, align 8
  store ptr %0, ptr %2, align 8, !tbaa !87
  %3 = load ptr, ptr %2, align 8
  %4 = getelementptr inbounds nuw %"class.google::protobuf::internal::HasBits", ptr %3, i32 0, i32 0
  %5 = getelementptr inbounds [1 x i32], ptr %4, i64 0, i64 0
  call void @llvm.memset.p0.i64(ptr align 4 %5, i8 0, i64 4, i1 false)
  ret void
}

; Function Attrs: mustprogress uwtable
define hidden void @_ZN12opencv_caffe30NonMaximumSuppressionParameter5ClearEv(ptr noundef nonnull align 8 dereferenceable(40) %0) unnamed_addr #4 align 2 {
  %2 = alloca ptr, align 8
  %3 = alloca i32, align 4
  store ptr %0, ptr %2, align 8, !tbaa !235
  %4 = load ptr, ptr %2, align 8
  call void @llvm.lifetime.start.p0(i64 4, ptr %3) #3
  store i32 0, ptr %3, align 4, !tbaa !8
  %5 = getelementptr inbounds nuw %"class.opencv_caffe::NonMaximumSuppressionParameter", ptr %4, i32 0, i32 1
  %6 = call noundef nonnull align 4 dereferenceable(4) ptr @_ZN6google8protobuf8internal7HasBitsILm1EEixEi(ptr noundef nonnull align 4 dereferenceable(4) %5, i32 noundef 0)
  %7 = load i32, ptr %6, align 4, !tbaa !8
  store i32 %7, ptr %3, align 4, !tbaa !8
  %8 = load i32, ptr %3, align 4, !tbaa !8
  %9 = and i32 %8, 7
  %10 = icmp ne i32 %9, 0
  br i1 %10, label %11, label %15

11:                                               ; preds = %1
  %12 = getelementptr inbounds nuw %"class.opencv_caffe::NonMaximumSuppressionParameter", ptr %4, i32 0, i32 3
  store i32 0, ptr %12, align 8, !tbaa !236
  %13 = getelementptr inbounds nuw %"class.opencv_caffe::NonMaximumSuppressionParameter", ptr %4, i32 0, i32 4
  store float 0x3FD3333340000000, ptr %13, align 4, !tbaa !238
  %14 = getelementptr inbounds nuw %"class.opencv_caffe::NonMaximumSuppressionParameter", ptr %4, i32 0, i32 5
  store float 1.000000e+00, ptr %14, align 8, !tbaa !239
  br label %15

15:                                               ; preds = %11, %1
  %16 = getelementptr inbounds nuw %"class.opencv_caffe::NonMaximumSuppressionParameter", ptr %4, i32 0, i32 1
  call void @_ZN6google8protobuf8internal7HasBitsILm1EE5ClearEv(ptr noundef nonnull align 4 dereferenceable(4) %16)
  %17 = getelementptr inbounds nuw %"class.google::protobuf::MessageLite", ptr %4, i32 0, i32 1
  call void @_ZN6google8protobuf8internal16InternalMetadata5ClearINS0_15UnknownFieldSetEEEvv(ptr noundef nonnull align 8 dereferenceable(8) %17)
  call void @llvm.lifetime.end.p0(i64 4, ptr %3) #3
  ret void
}

; Function Attrs: alwaysinline mustprogress nounwind uwtable
define linkonce_odr hidden noundef nonnull align 4 dereferenceable(4) ptr @_ZN6google8protobuf8internal7HasBitsILm1EEixEi(ptr noundef nonnull align 4 dereferenceable(4) %0, i32 noundef %1) #13 comdat align 2 {
  %3 = alloca ptr, align 8
  %4 = alloca i32, align 4
  store ptr %0, ptr %3, align 8, !tbaa !87
  store i32 %1, ptr %4, align 4, !tbaa !8
  %5 = load ptr, ptr %3, align 8
  %6 = getelementptr inbounds nuw %"class.google::protobuf::internal::HasBits", ptr %5, i32 0, i32 0
  %7 = load i32, ptr %4, align 4, !tbaa !8
  %8 = sext i32 %7 to i64
  %9 = getelementptr inbounds [1 x i32], ptr %6, i64 0, i64 %8
  ret ptr %9
}

; Function Attrs: mustprogress uwtable
define hidden void @_ZN12opencv_caffe24DetectionOutputParameter5ClearEv(ptr noundef nonnull align 8 dereferenceable(72) %0) unnamed_addr #4 align 2 personality ptr @__gxx_personality_v0 {
  %2 = alloca ptr, align 8
  %3 = alloca i32, align 4
  %4 = alloca %"class.google::protobuf::internal::LogMessage", align 8
  %5 = alloca i1, align 1
  %6 = alloca i1, align 1
  %7 = alloca ptr, align 8
  %8 = alloca i32, align 4
  %9 = alloca %"class.google::protobuf::internal::LogFinisher", align 1
  %10 = alloca %"class.google::protobuf::internal::LogMessage", align 8
  %11 = alloca i1, align 1
  %12 = alloca i1, align 1
  %13 = alloca %"class.google::protobuf::internal::LogFinisher", align 1
  store ptr %0, ptr %2, align 8, !tbaa !219
  %14 = load ptr, ptr %2, align 8
  call void @llvm.lifetime.start.p0(i64 4, ptr %3) #3
  store i32 0, ptr %3, align 4, !tbaa !8
  %15 = getelementptr inbounds nuw %"class.opencv_caffe::DetectionOutputParameter", ptr %14, i32 0, i32 1
  %16 = call noundef nonnull align 4 dereferenceable(4) ptr @_ZN6google8protobuf8internal7HasBitsILm1EEixEi(ptr noundef nonnull align 4 dereferenceable(4) %15, i32 noundef 0)
  %17 = load i32, ptr %16, align 4, !tbaa !8
  store i32 %17, ptr %3, align 4, !tbaa !8
  %18 = load i32, ptr %3, align 4, !tbaa !8
  %19 = and i32 %18, 3
  %20 = icmp ne i32 %19, 0
  br i1 %20, label %21, label %102

21:                                               ; preds = %1
  %22 = load i32, ptr %3, align 4, !tbaa !8
  %23 = and i32 %22, 1
  %24 = icmp ne i32 %23, 0
  br i1 %24, label %25, label %61

25:                                               ; preds = %21
  br label %26

26:                                               ; preds = %42, %25
  br i1 false, label %27, label %58

27:                                               ; preds = %26
  %28 = getelementptr inbounds nuw %"class.opencv_caffe::DetectionOutputParameter", ptr %14, i32 0, i32 3
  %29 = load ptr, ptr %28, align 8, !tbaa !221
  %30 = icmp ne ptr %29, null
  store i1 false, ptr %5, align 1
  store i1 false, ptr %6, align 1
  call void @llvm.lifetime.start.p0(i64 1, ptr %9) #3
  br i1 %30, label %31, label %32

31:                                               ; preds = %27
  br label %36

32:                                               ; preds = %27
  call void @llvm.lifetime.start.p0(i64 56, ptr %4) #3
  store i1 true, ptr %5, align 1
  call void @_ZN6google8protobuf8internal10LogMessageC1ENS0_8LogLevelEPKci(ptr noundef nonnull align 8 dereferenceable(56) %4, i32 noundef 3, ptr noundef @.str.2, i32 noundef 6292)
  store i1 true, ptr %6, align 1
  %33 = invoke noundef nonnull align 8 dereferenceable(56) ptr @_ZN6google8protobuf8internal10LogMessagelsEPKc(ptr noundef nonnull align 8 dereferenceable(56) %4, ptr noundef @.str.6)
          to label %34 unwind label %43

34:                                               ; preds = %32
  invoke void @_ZN6google8protobuf8internal11LogFinisheraSERNS1_10LogMessageE(ptr noundef nonnull align 1 dereferenceable(1) %9, ptr noundef nonnull align 8 dereferenceable(56) %33)
          to label %35 unwind label %47

35:                                               ; preds = %34
  br label %36

36:                                               ; preds = %35, %31
  call void @llvm.lifetime.end.p0(i64 1, ptr %9) #3
  %37 = load i1, ptr %6, align 1
  br i1 %37, label %38, label %39

38:                                               ; preds = %36
  call void @_ZN6google8protobuf8internal10LogMessageD1Ev(ptr noundef nonnull align 8 dereferenceable(56) %4) #3
  br label %39

39:                                               ; preds = %38, %36
  %40 = load i1, ptr %5, align 1
  br i1 %40, label %41, label %42

41:                                               ; preds = %39
  call void @llvm.lifetime.end.p0(i64 56, ptr %4) #3
  br label %42

42:                                               ; preds = %41, %39
  br label %26, !llvm.loop !233

43:                                               ; preds = %32
  %44 = landingpad { ptr, i32 }
          cleanup
  %45 = extractvalue { ptr, i32 } %44, 0
  store ptr %45, ptr %7, align 8
  %46 = extractvalue { ptr, i32 } %44, 1
  store i32 %46, ptr %8, align 4
  br label %51

47:                                               ; preds = %34
  %48 = landingpad { ptr, i32 }
          cleanup
  %49 = extractvalue { ptr, i32 } %48, 0
  store ptr %49, ptr %7, align 8
  %50 = extractvalue { ptr, i32 } %48, 1
  store i32 %50, ptr %8, align 4
  call void @llvm.lifetime.end.p0(i64 1, ptr %9) #3
  br label %51

51:                                               ; preds = %47, %43
  %52 = load i1, ptr %6, align 1
  br i1 %52, label %53, label %54

53:                                               ; preds = %51
  call void @_ZN6google8protobuf8internal10LogMessageD1Ev(ptr noundef nonnull align 8 dereferenceable(56) %4) #3
  br label %54

54:                                               ; preds = %53, %51
  %55 = load i1, ptr %5, align 1
  br i1 %55, label %56, label %57

56:                                               ; preds = %54
  call void @llvm.lifetime.end.p0(i64 56, ptr %4) #3
  br label %57

57:                                               ; preds = %56, %54
  br label %126

58:                                               ; preds = %26
  %59 = getelementptr inbounds nuw %"class.opencv_caffe::DetectionOutputParameter", ptr %14, i32 0, i32 3
  %60 = load ptr, ptr %59, align 8, !tbaa !221
  call void @_ZN12opencv_caffe30NonMaximumSuppressionParameter5ClearEv(ptr noundef nonnull align 8 dereferenceable(40) %60)
  br label %61

61:                                               ; preds = %58, %21
  %62 = load i32, ptr %3, align 4, !tbaa !8
  %63 = and i32 %62, 2
  %64 = icmp ne i32 %63, 0
  br i1 %64, label %65, label %101

65:                                               ; preds = %61
  br label %66

66:                                               ; preds = %82, %65
  br i1 false, label %67, label %98

67:                                               ; preds = %66
  %68 = getelementptr inbounds nuw %"class.opencv_caffe::DetectionOutputParameter", ptr %14, i32 0, i32 4
  %69 = load ptr, ptr %68, align 8, !tbaa !225
  %70 = icmp ne ptr %69, null
  store i1 false, ptr %11, align 1
  store i1 false, ptr %12, align 1
  call void @llvm.lifetime.start.p0(i64 1, ptr %13) #3
  br i1 %70, label %71, label %72

71:                                               ; preds = %67
  br label %76

72:                                               ; preds = %67
  call void @llvm.lifetime.start.p0(i64 56, ptr %10) #3
  store i1 true, ptr %11, align 1
  call void @_ZN6google8protobuf8internal10LogMessageC1ENS0_8LogLevelEPKci(ptr noundef nonnull align 8 dereferenceable(56) %10, i32 noundef 3, ptr noundef @.str.2, i32 noundef 6296)
  store i1 true, ptr %12, align 1
  %73 = invoke noundef nonnull align 8 dereferenceable(56) ptr @_ZN6google8protobuf8internal10LogMessagelsEPKc(ptr noundef nonnull align 8 dereferenceable(56) %10, ptr noundef @.str.7)
          to label %74 unwind label %83

74:                                               ; preds = %72
  invoke void @_ZN6google8protobuf8internal11LogFinisheraSERNS1_10LogMessageE(ptr noundef nonnull align 1 dereferenceable(1) %13, ptr noundef nonnull align 8 dereferenceable(56) %73)
          to label %75 unwind label %87

75:                                               ; preds = %74
  br label %76

76:                                               ; preds = %75, %71
  call void @llvm.lifetime.end.p0(i64 1, ptr %13) #3
  %77 = load i1, ptr %12, align 1
  br i1 %77, label %78, label %79

78:                                               ; preds = %76
  call void @_ZN6google8protobuf8internal10LogMessageD1Ev(ptr noundef nonnull align 8 dereferenceable(56) %10) #3
  br label %79

79:                                               ; preds = %78, %76
  %80 = load i1, ptr %11, align 1
  br i1 %80, label %81, label %82

81:                                               ; preds = %79
  call void @llvm.lifetime.end.p0(i64 56, ptr %10) #3
  br label %82

82:                                               ; preds = %81, %79
  br label %66, !llvm.loop !234

83:                                               ; preds = %72
  %84 = landingpad { ptr, i32 }
          cleanup
  %85 = extractvalue { ptr, i32 } %84, 0
  store ptr %85, ptr %7, align 8
  %86 = extractvalue { ptr, i32 } %84, 1
  store i32 %86, ptr %8, align 4
  br label %91

87:                                               ; preds = %74
  %88 = landingpad { ptr, i32 }
          cleanup
  %89 = extractvalue { ptr, i32 } %88, 0
  store ptr %89, ptr %7, align 8
  %90 = extractvalue { ptr, i32 } %88, 1
  store i32 %90, ptr %8, align 4
  call void @llvm.lifetime.end.p0(i64 1, ptr %13) #3
  br label %91

91:                                               ; preds = %87, %83
  %92 = load i1, ptr %12, align 1
  br i1 %92, label %93, label %94

93:                                               ; preds = %91
  call void @_ZN6google8protobuf8internal10LogMessageD1Ev(ptr noundef nonnull align 8 dereferenceable(56) %10) #3
  br label %94

94:                                               ; preds = %93, %91
  %95 = load i1, ptr %11, align 1
  br i1 %95, label %96, label %97

96:                                               ; preds = %94
  call void @llvm.lifetime.end.p0(i64 56, ptr %10) #3
  br label %97

97:                                               ; preds = %96, %94
  br label %126

98:                                               ; preds = %66
  %99 = getelementptr inbounds nuw %"class.opencv_caffe::DetectionOutputParameter", ptr %14, i32 0, i32 4
  %100 = load ptr, ptr %99, align 8, !tbaa !225
  call void @_ZN12opencv_caffe19SaveOutputParameter5ClearEv(ptr noundef nonnull align 8 dereferenceable(72) %100)
  br label %101

101:                                              ; preds = %98, %61
  br label %102

102:                                              ; preds = %101, %1
  %103 = load i32, ptr %3, align 4, !tbaa !8
  %104 = and i32 %103, 252
  %105 = icmp ne i32 %104, 0
  br i1 %105, label %106, label %115

106:                                              ; preds = %102
  %107 = getelementptr inbounds nuw %"class.opencv_caffe::DetectionOutputParameter", ptr %14, i32 0, i32 5
  %108 = getelementptr inbounds nuw %"class.opencv_caffe::DetectionOutputParameter", ptr %14, i32 0, i32 9
  %109 = getelementptr inbounds nuw %"class.opencv_caffe::DetectionOutputParameter", ptr %14, i32 0, i32 5
  %110 = ptrtoint ptr %108 to i64
  %111 = ptrtoint ptr %109 to i64
  %112 = sub i64 %110, %111
  %113 = add i64 %112, 1
  call void @llvm.memset.p0.i64(ptr align 8 %107, i8 0, i64 %113, i1 false)
  %114 = getelementptr inbounds nuw %"class.opencv_caffe::DetectionOutputParameter", ptr %14, i32 0, i32 11
  store i32 -1, ptr %114, align 8, !tbaa !226
  br label %115

115:                                              ; preds = %106, %102
  %116 = load i32, ptr %3, align 4, !tbaa !8
  %117 = and i32 %116, 1792
  %118 = icmp ne i32 %117, 0
  br i1 %118, label %119, label %123

119:                                              ; preds = %115
  %120 = getelementptr inbounds nuw %"class.opencv_caffe::DetectionOutputParameter", ptr %14, i32 0, i32 12
  store i32 1, ptr %120, align 4, !tbaa !227
  %121 = getelementptr inbounds nuw %"class.opencv_caffe::DetectionOutputParameter", ptr %14, i32 0, i32 13
  store i8 1, ptr %121, align 8, !tbaa !228
  %122 = getelementptr inbounds nuw %"class.opencv_caffe::DetectionOutputParameter", ptr %14, i32 0, i32 14
  store i8 1, ptr %122, align 1, !tbaa !229
  br label %123

123:                                              ; preds = %119, %115
  %124 = getelementptr inbounds nuw %"class.opencv_caffe::DetectionOutputParameter", ptr %14, i32 0, i32 1
  call void @_ZN6google8protobuf8internal7HasBitsILm1EE5ClearEv(ptr noundef nonnull align 4 dereferenceable(4) %124)
  %125 = getelementptr inbounds nuw %"class.google::protobuf::MessageLite", ptr %14, i32 0, i32 1
  call void @_ZN6google8protobuf8internal16InternalMetadata5ClearINS0_15UnknownFieldSetEEEvv(ptr noundef nonnull align 8 dereferenceable(8) %125)
  call void @llvm.lifetime.end.p0(i64 4, ptr %3) #3
  ret void

126:                                              ; preds = %97, %57
  call void @llvm.lifetime.end.p0(i64 4, ptr %3) #3
  br label %127

127:                                              ; preds = %126
  %128 = load ptr, ptr %7, align 8
  %129 = load i32, ptr %8, align 4
  %130 = insertvalue { ptr, i32 } poison, ptr %128, 0
  %131 = insertvalue { ptr, i32 } %130, i32 %129, 1
  resume { ptr, i32 } %131
}