; Function Attrs: mustprogress uwtable
define hidden void @_ZN12opencv_caffe24DetectionOutputParameter5ClearEv(ptr noundef nonnull align 8 dereferenceable(72) %0) unnamed_addr #3 align 2 personality ptr @__gxx_personality_v0 {
  %2 = getelementptr inbounds nuw i8, ptr %0, i64 16
  %3 = load i32, ptr %2, align 8, !tbaa !71
  %4 = and i32 %3, 3
  %.not = icmp eq i32 %4, 0
  br i1 %.not, label %26, label %5

5:                                                ; preds = %1
  %6 = and i32 %3, 1
  %.not5 = icmp eq i32 %6, 0
  br i1 %.not5, label %_ZN12opencv_caffe30NonMaximumSuppressionParameter5ClearEv.exit, label %7

7:                                                ; preds = %5
  %8 = getelementptr inbounds nuw i8, ptr %0, i64 24
  %9 = load ptr, ptr %8, align 8, !tbaa !161
  %10 = getelementptr inbounds nuw i8, ptr %9, i64 16
  %11 = load i32, ptr %10, align 4, !tbaa !71
  %12 = and i32 %11, 7
  %.not.i = icmp eq i32 %12, 0
  br i1 %.not.i, label %17, label %13

13:                                               ; preds = %7
  %14 = getelementptr inbounds nuw i8, ptr %9, i64 24
  store i32 0, ptr %14, align 8, !tbaa !170
  %15 = getelementptr inbounds nuw i8, ptr %9, i64 28
  store float 0x3FD3333340000000, ptr %15, align 4, !tbaa !172
  %16 = getelementptr inbounds nuw i8, ptr %9, i64 32
  store float 1.000000e+00, ptr %16, align 8, !tbaa !173
  br label %17

17:                                               ; preds = %13, %7
  store i32 0, ptr %10, align 4
  %18 = getelementptr inbounds nuw i8, ptr %9, i64 8
  %19 = load i64, ptr %18, align 8, !tbaa !8
  %20 = and i64 %19, 1
  %.not1.i = icmp eq i64 %20, 0
  br i1 %.not1.i, label %_ZN12opencv_caffe30NonMaximumSuppressionParameter5ClearEv.exit, label %21

21:                                               ; preds = %17
  tail call void @_ZN6google8protobuf8internal16InternalMetadata7DoClearINS0_15UnknownFieldSetEEEvv(ptr noundef nonnull align 8 dereferenceable(8) %18)
  br label %_ZN12opencv_caffe30NonMaximumSuppressionParameter5ClearEv.exit

_ZN12opencv_caffe30NonMaximumSuppressionParameter5ClearEv.exit: ; preds = %21, %17, %5
  %22 = and i32 %3, 2
  %.not6 = icmp eq i32 %22, 0
  br i1 %.not6, label %26, label %23

23:                                               ; preds = %_ZN12opencv_caffe30NonMaximumSuppressionParameter5ClearEv.exit
  %24 = getelementptr inbounds nuw i8, ptr %0, i64 32
  %25 = load ptr, ptr %24, align 8, !tbaa !165
  tail call void @_ZN12opencv_caffe19SaveOutputParameter5ClearEv(ptr noundef nonnull align 8 dereferenceable(72) %25)
  br label %26

26:                                               ; preds = %_ZN12opencv_caffe30NonMaximumSuppressionParameter5ClearEv.exit, %23, %1
  %27 = and i32 %3, 252
  %.not7 = icmp eq i32 %27, 0
  br i1 %.not7, label %31, label %28

28:                                               ; preds = %26
  %29 = getelementptr inbounds nuw i8, ptr %0, i64 40
  tail call void @llvm.memset.p0.i64(ptr noundef nonnull align 8 dereferenceable(14) %29, i8 0, i64 14, i1 false)
  %30 = getelementptr inbounds nuw i8, ptr %0, i64 56
  store i32 -1, ptr %30, align 8, !tbaa !166
  br label %31

31:                                               ; preds = %28, %26
  %32 = and i32 %3, 1792
  %.not8 = icmp eq i32 %32, 0
  br i1 %.not8, label %37, label %33

33:                                               ; preds = %31
  %34 = getelementptr inbounds nuw i8, ptr %0, i64 60
  store i32 1, ptr %34, align 4, !tbaa !167
  %35 = getelementptr inbounds nuw i8, ptr %0, i64 64
  store i8 1, ptr %35, align 8, !tbaa !168
  %36 = getelementptr inbounds nuw i8, ptr %0, i64 65
  store i8 1, ptr %36, align 1, !tbaa !169
  br label %37

37:                                               ; preds = %33, %31
  store i32 0, ptr %2, align 8
  %38 = getelementptr inbounds nuw i8, ptr %0, i64 8
  %39 = load i64, ptr %38, align 8, !tbaa !8
  %40 = and i64 %39, 1
  %.not9 = icmp eq i64 %40, 0
  br i1 %.not9, label %_ZN6google8protobuf8internal16InternalMetadata5ClearINS0_15UnknownFieldSetEEEvv.exit, label %41

41:                                               ; preds = %37
  tail call void @_ZN6google8protobuf8internal16InternalMetadata7DoClearINS0_15UnknownFieldSetEEEvv(ptr noundef nonnull align 8 dereferenceable(8) %38)
  br label %_ZN6google8protobuf8internal16InternalMetadata5ClearINS0_15UnknownFieldSetEEEvv.exit

_ZN6google8protobuf8internal16InternalMetadata5ClearINS0_15UnknownFieldSetEEEvv.exit: ; preds = %37, %41
  ret void
}